; Function Attrs: mustprogress uwtable
define hidden void @_ZN19OpenColorIO_v2_4dev19validateGreaterThanEPKcdd(ptr noundef %name, double noundef %value, double noundef %threshold) local_unnamed_addr #3 personality ptr @__gxx_personality_v0 {
entry:
  %oss = alloca %"class.std::__cxx11::basic_ostringstream", align 8
  %ref.tmp = alloca %"class.std::__cxx11::basic_string", align 8
  %cmp = fcmp ogt double %value, %threshold
  br i1 %cmp, label %if.end, label %if.then

if.then:                                          ; preds = %entry
  call void @_ZNSt7__cxx1119basic_ostringstreamIcSt11char_traitsIcESaIcEEC1Ev(ptr noundef nonnull align 8 dereferenceable(112) %oss)
  %call = invoke noundef nonnull align 8 dereferenceable(8) ptr @_ZStlsISt11char_traitsIcEERSt13basic_ostreamIcT_ES5_PKc(ptr noundef nonnull align 8 dereferenceable(8) %oss, ptr noundef nonnull @.str.9)
          to label %invoke.cont unwind label %lpad

invoke.cont:                                      ; preds = %if.then
  %call2 = invoke noundef nonnull align 8 dereferenceable(8) ptr @_ZStlsISt11char_traitsIcEERSt13basic_ostreamIcT_ES5_PKc(ptr noundef nonnull align 8 dereferenceable(8) %oss, ptr noundef %name)
          to label %invoke.cont1 unwind label %lpad

invoke.cont1:                                     ; preds = %invoke.cont
  %call4 = invoke noundef nonnull align 8 dereferenceable(8) ptr @_ZStlsISt11char_traitsIcEERSt13basic_ostreamIcT_ES5_PKc(ptr noundef nonnull align 8 dereferenceable(8) %oss, ptr noundef nonnull @.str.6)
          to label %invoke.cont3 unwind label %lpad

invoke.cont3:                                     ; preds = %invoke.cont1
  %call6 = invoke noundef nonnull align 8 dereferenceable(8) ptr @_ZNSolsEd(ptr noundef nonnull align 8 dereferenceable(8) %call4, double noundef %value)
          to label %invoke.cont5 unwind label %lpad

invoke.cont5:                                     ; preds = %invoke.cont3
  %call8 = invoke noundef nonnull align 8 dereferenceable(8) ptr @_ZStlsISt11char_traitsIcEERSt13basic_ostreamIcT_ES5_PKc(ptr noundef nonnull align 8 dereferenceable(8) %oss, ptr noundef nonnull @.str.7)
          to label %invoke.cont7 unwind label %lpad

invoke.cont7:                                     ; preds = %invoke.cont5
  %call10 = invoke noundef nonnull align 8 dereferenceable(8) ptr @_ZNSolsEd(ptr noundef nonnull align 8 dereferenceable(8) %oss, double noundef %threshold)
          to label %invoke.cont9 unwind label %lpad

invoke.cont9:                                     ; preds = %invoke.cont7
  %call12 = invoke noundef nonnull align 8 dereferenceable(8) ptr @_ZStlsISt11char_traitsIcEERSt13basic_ostreamIcT_ES5_PKc(ptr noundef nonnull align 8 dereferenceable(8) %call10, ptr noundef nonnull @.str.8)
          to label %invoke.cont11 unwind label %lpad

invoke.cont11:                                    ; preds = %invoke.cont9
  %exception = call ptr @__cxa_allocate_exception(i64 16) #19
  invoke void @_ZNKSt7__cxx1119basic_ostringstreamIcSt11char_traitsIcESaIcEE3strEv(ptr nonnull sret(%"class.std::__cxx11::basic_string") align 8 %ref.tmp, ptr noundef nonnull align 8 dereferenceable(112) %oss)
          to label %invoke.cont14 unwind label %ehcleanup.thread

invoke.cont14:                                    ; preds = %invoke.cont11
  %call15 = call noundef ptr @_ZNKSt7__cxx1112basic_stringIcSt11char_traitsIcESaIcEE5c_strEv(ptr noundef nonnull align 8 dereferenceable(32) %ref.tmp) #19
  invoke void @_ZN19OpenColorIO_v2_4dev9ExceptionC1EPKc(ptr noundef nonnull align 8 dereferenceable(16) %exception, ptr noundef %call15)
          to label %invoke.cont17 unwind label %ehcleanup.thread8

ehcleanup.thread8:                                ; preds = %invoke.cont14
  %0 = landingpad { ptr, i32 }
          cleanup
  call void @_ZNSt7__cxx1112basic_stringIcSt11char_traitsIcESaIcEED1Ev(ptr noundef nonnull align 8 dereferenceable(32) %ref.tmp) #19
  br label %cleanup.action

invoke.cont17:                                    ; preds = %invoke.cont14
  invoke void @__cxa_throw(ptr nonnull %exception, ptr nonnull @_ZTIN19OpenColorIO_v2_4dev9ExceptionE, ptr nonnull @_ZN19OpenColorIO_v2_4dev9ExceptionD1Ev) #20
          to label %unreachable unwind label %ehcleanup

lpad:                                             ; preds = %invoke.cont9, %invoke.cont7, %invoke.cont5, %invoke.cont3, %invoke.cont1, %invoke.cont, %if.then
  %1 = landingpad { ptr, i32 }
          cleanup
  br label %ehcleanup18

ehcleanup.thread:                                 ; preds = %invoke.cont11
  %2 = landingpad { ptr, i32 }
          cleanup
  br label %cleanup.action

ehcleanup:                                        ; preds = %invoke.cont17
  %3 = landingpad { ptr, i32 }
          cleanup
  call void @_ZNSt7__cxx1112basic_stringIcSt11char_traitsIcESaIcEED1Ev(ptr noundef nonnull align 8 dereferenceable(32) %ref.tmp) #19
  br label %ehcleanup18

cleanup.action:                                   ; preds = %ehcleanup.thread8, %ehcleanup.thread
  %.pn7 = phi { ptr, i32 } [ %2, %ehcleanup.thread ], [ %0, %ehcleanup.thread8 ]
  call void @__cxa_free_exception(ptr %exception) #19
  br label %ehcleanup18

ehcleanup18:                                      ; preds = %ehcleanup, %cleanup.action, %lpad
  %.pn.pn = phi { ptr, i32 } [ %.pn7, %cleanup.action ], [ %3, %ehcleanup ], [ %1, %lpad ]
  call void @_ZNSt7__cxx1119basic_ostringstreamIcSt11char_traitsIcESaIcEED1Ev(ptr noundef nonnull align 8 dereferenceable(112) %oss) #19
  resume { ptr, i32 } %.pn.pn

if.end:                                           ; preds = %entry
  ret void

unreachable:                                      ; preds = %invoke.cont17
  unreachable
}